target datalayout = "e-m:e-p270:32:32-p271:32:32-p272:64:64-i64:64-i128:128-f80:128-n8:16:32:64-S128"
target triple = "x86_64-pc-linux-gnu"

%"class.llvm::LegalizerHelper" = type { ptr, ptr, ptr, ptr, ptr, ptr }
%"class.llvm::SmallVectorBase" = type { ptr, i32, i32 }
%"class.llvm::LLT" = type { i64 }
%"class.llvm::Register" = type { i32 }
%"class.llvm::SmallVector.101" = type { %"class.llvm::SmallVectorImpl.102", %"struct.llvm::SmallVectorStorage.105" }
%"class.llvm::SmallVectorImpl.102" = type { %"class.llvm::SmallVectorTemplateBase.103" }
%"class.llvm::SmallVectorTemplateBase.103" = type { %"class.llvm::SmallVectorTemplateCommon.104" }
%"class.llvm::SmallVectorTemplateCommon.104" = type { %"class.llvm::SmallVectorBase" }
%"struct.llvm::SmallVectorStorage.105" = type { [16 x i8] }
%"class.llvm::MachineRegisterInfo" = type { ptr, %"class.llvm::SmallPtrSet.67", i8, [7 x i8], %"class.llvm::IndexedMap", %"class.llvm::IndexedMap.77", %"class.llvm::StringSet", i8, %"class.llvm::SmallVector.87", %"class.llvm::IndexedMap.93", %"class.std::unique_ptr.107", %"class.llvm::BitVector", %"class.llvm::BitVector", %"class.llvm::IndexedMap.120", %"class.std::vector.127" }
%"class.llvm::SmallPtrSet.67" = type { %"class.llvm::SmallPtrSetImpl.base.69", [1 x ptr] }
%"class.llvm::SmallPtrSetImpl.base.69" = type { %"class.llvm::SmallPtrSetImplBase.base" }
%"class.llvm::SmallPtrSetImplBase.base" = type <{ ptr, ptr, i32, i32, i32 }>
%"class.llvm::IndexedMap" = type <{ %"class.llvm::SmallVector.70", %"struct.std::pair", [8 x i8] }>
%"class.llvm::SmallVector.70" = type { %"class.llvm::SmallVectorImpl.71" }
%"class.llvm::SmallVectorImpl.71" = type { %"class.llvm::SmallVectorTemplateBase.72" }
%"class.llvm::SmallVectorTemplateBase.72" = type { %"class.llvm::SmallVectorTemplateCommon.73" }
%"class.llvm::SmallVectorTemplateCommon.73" = type { %"class.llvm::SmallVectorBase" }
%"struct.std::pair" = type { %"class.llvm::PointerUnion", ptr }
%"class.llvm::PointerUnion" = type { %"class.llvm::pointer_union_detail::PointerUnionMembers" }
%"class.llvm::pointer_union_detail::PointerUnionMembers" = type { %"class.llvm::pointer_union_detail::PointerUnionMembers.75" }
%"class.llvm::pointer_union_detail::PointerUnionMembers.75" = type { %"class.llvm::pointer_union_detail::PointerUnionMembers.76" }
%"class.llvm::pointer_union_detail::PointerUnionMembers.76" = type { %"class.llvm::PointerIntPair" }
%"class.llvm::PointerIntPair" = type { %"struct.llvm::detail::PunnedPointer" }
%"struct.llvm::detail::PunnedPointer" = type { [8 x i8] }
%"class.llvm::IndexedMap.77" = type <{ %"class.llvm::SmallVector.78", %"class.std::__cxx11::basic_string", [8 x i8] }>
%"class.llvm::SmallVector.78" = type { %"class.llvm::SmallVectorImpl.79" }
%"class.llvm::SmallVectorImpl.79" = type { %"class.llvm::SmallVectorTemplateBase.80" }
%"class.llvm::SmallVectorTemplateBase.80" = type { %"class.llvm::SmallVectorTemplateCommon.81" }
%"class.llvm::SmallVectorTemplateCommon.81" = type { %"class.llvm::SmallVectorBase" }
%"class.std::__cxx11::basic_string" = type { %"struct.std::__cxx11::basic_string<char>::_Alloc_hider", i64, %union.anon }
%"struct.std::__cxx11::basic_string<char>::_Alloc_hider" = type { ptr }
%union.anon = type { i64, [8 x i8] }
%"class.llvm::StringSet" = type { %"class.llvm::StringMap" }
%"class.llvm::StringMap" = type { %"class.llvm::StringMapImpl" }
%"class.llvm::StringMapImpl" = type { ptr, i32, i32, i32, i32 }
%"class.llvm::SmallVector.87" = type { %"class.llvm::SmallVectorImpl.88", %"struct.llvm::SmallVectorStorage.92" }
%"class.llvm::SmallVectorImpl.88" = type { %"class.llvm::SmallVectorTemplateBase.89" }
%"class.llvm::SmallVectorTemplateBase.89" = type { %"class.llvm::SmallVectorTemplateCommon.90" }
%"class.llvm::SmallVectorTemplateCommon.90" = type { %"class.llvm::SmallVectorBase.91" }
%"class.llvm::SmallVectorBase.91" = type { ptr, i64, i64 }
%"struct.llvm::SmallVectorStorage.92" = type { [32 x i8] }
%"class.llvm::IndexedMap.93" = type <{ %"class.llvm::SmallVector.94", %"struct.std::pair.99", [8 x i8] }>
%"class.llvm::SmallVector.94" = type { %"class.llvm::SmallVectorImpl.95" }
%"class.llvm::SmallVectorImpl.95" = type { %"class.llvm::SmallVectorTemplateBase.96" }
%"class.llvm::SmallVectorTemplateBase.96" = type { %"class.llvm::SmallVectorTemplateCommon.97" }
%"class.llvm::SmallVectorTemplateCommon.97" = type { %"class.llvm::SmallVectorBase" }
%"struct.std::pair.99" = type { i32, %"class.llvm::SmallVector.101" }
%"class.std::unique_ptr.107" = type { %"struct.std::__uniq_ptr_data.108" }
%"struct.std::__uniq_ptr_data.108" = type { %"class.std::__uniq_ptr_impl.109" }
%"class.std::__uniq_ptr_impl.109" = type { %"class.std::tuple.110" }
%"class.std::tuple.110" = type { %"struct.std::_Tuple_impl.111" }
%"struct.std::_Tuple_impl.111" = type { %"struct.std::_Head_base.114" }
%"struct.std::_Head_base.114" = type { ptr }
%"class.llvm::BitVector" = type <{ %"class.llvm::SmallVector.115", i32, [4 x i8] }>
%"class.llvm::SmallVector.115" = type { %"class.llvm::SmallVectorImpl.116", %"struct.llvm::SmallVectorStorage.119" }
%"class.llvm::SmallVectorImpl.116" = type { %"class.llvm::SmallVectorTemplateBase.117" }
%"class.llvm::SmallVectorTemplateBase.117" = type { %"class.llvm::SmallVectorTemplateCommon.118" }
%"class.llvm::SmallVectorTemplateCommon.118" = type { %"class.llvm::SmallVectorBase" }
%"struct.llvm::SmallVectorStorage.119" = type { [48 x i8] }
%"class.llvm::IndexedMap.120" = type <{ %"class.llvm::SmallVector.121", %"class.llvm::LLT", [8 x i8] }>
%"class.llvm::SmallVector.121" = type { %"class.llvm::SmallVectorImpl.122" }
%"class.llvm::SmallVectorImpl.122" = type { %"class.llvm::SmallVectorTemplateBase.123" }
%"class.llvm::SmallVectorTemplateBase.123" = type { %"class.llvm::SmallVectorTemplateCommon.124" }
%"class.llvm::SmallVectorTemplateCommon.124" = type { %"class.llvm::SmallVectorBase" }
%"class.std::vector.127" = type { %"struct.std::_Vector_base.128" }
%"struct.std::_Vector_base.128" = type { %"struct.std::_Vector_base<std::pair<llvm::MCRegister, llvm::Register>, std::allocator<std::pair<llvm::MCRegister, llvm::Register>>>::_Vector_impl" }
%"struct.std::_Vector_base<std::pair<llvm::MCRegister, llvm::Register>, std::allocator<std::pair<llvm::MCRegister, llvm::Register>>>::_Vector_impl" = type { %"struct.std::_Vector_base<std::pair<llvm::MCRegister, llvm::Register>, std::allocator<std::pair<llvm::MCRegister, llvm::Register>>>::_Vector_impl_data" }
%"struct.std::_Vector_base<std::pair<llvm::MCRegister, llvm::Register>, std::allocator<std::pair<llvm::MCRegister, llvm::Register>>>::_Vector_impl_data" = type { ptr, ptr, ptr }

; Function Attrs: mustprogress nounwind uwtable
define linkonce_odr hidden noundef i32 @_ZNK4llvm8RegistercvjEv(ptr noundef nonnull align 4 dereferenceable(4) %0) #0 comdat align 2 {
  %2 = alloca ptr, align 8
  store ptr %0, ptr %2, align 8
  %3 = load ptr, ptr %2, align 8
  %4 = getelementptr inbounds nuw %"class.llvm::Register", ptr %3, i32 0, i32 0
  %5 = load i32, ptr %4, align 4
  ret i32 %5
}

; Function Attrs: mustprogress nounwind uwtable
define linkonce_odr hidden noundef ptr @_ZNK4llvm25SmallVectorTemplateCommonINS_3LLTEvE5beginEv(ptr noundef nonnull align 8 dereferenceable(16) %0) #0 comdat align 2 {
  %2 = alloca ptr, align 8
  store ptr %0, ptr %2, align 8
  %3 = load ptr, ptr %2, align 8
  %4 = getelementptr inbounds nuw %"class.llvm::SmallVectorBase", ptr %3, i32 0, i32 0
  %5 = load ptr, ptr %4, align 8
  ret ptr %5
}

; Function Attrs: mustprogress nounwind uwtable
define linkonce_odr hidden noundef i32 @_ZN4llvm8Register13virtReg2IndexES0_(i32 %0) #0 comdat align 2 {
  %2 = alloca %"class.llvm::Register", align 4
  %3 = getelementptr inbounds nuw %"class.llvm::Register", ptr %2, i32 0, i32 0
  store i32 %0, ptr %3, align 4
  %4 = call noundef i32 @_ZNK4llvm8RegistercvjEv(ptr noundef nonnull align 4 dereferenceable(4) %2)
  %5 = and i32 %4, 2147483647
  ret i32 %5
}

; Function Attrs: mustprogress nounwind uwtable
define linkonce_odr hidden noundef nonnull align 8 dereferenceable(8) ptr @_ZNK4llvm25SmallVectorTemplateCommonINS_3LLTEvEixEm(ptr noundef nonnull align 8 dereferenceable(16) %0, i64 noundef %1) #0 comdat align 2 {
  %3 = alloca ptr, align 8
  %4 = alloca i64, align 8
  store ptr %0, ptr %3, align 8
  store i64 %1, ptr %4, align 8
  %5 = load ptr, ptr %3, align 8
  %6 = call noundef ptr @_ZNK4llvm25SmallVectorTemplateCommonINS_3LLTEvE5beginEv(ptr noundef nonnull align 8 dereferenceable(16) %5)
  %7 = load i64, ptr %4, align 8
  %8 = getelementptr inbounds %"class.llvm::LLT", ptr %6, i64 %7
  ret ptr %8
}

; Function Attrs: mustprogress nounwind uwtable
define linkonce_odr hidden noundef i32 @_ZNK4llvm20VirtReg2IndexFunctorclENS_8RegisterE(ptr noundef nonnull align 1 dereferenceable(1) %0, i32 %1) #0 comdat align 2 {
  %3 = alloca %"class.llvm::Register", align 4
  %4 = alloca ptr, align 8
  %5 = alloca %"class.llvm::Register", align 4
  %6 = getelementptr inbounds nuw %"class.llvm::Register", ptr %3, i32 0, i32 0
  store i32 %1, ptr %6, align 4
  store ptr %0, ptr %4, align 8
  call void @llvm.memcpy.p0.p0.i64(ptr align 4 %5, ptr align 4 %3, i64 4, i1 false)
  %7 = getelementptr inbounds nuw %"class.llvm::Register", ptr %5, i32 0, i32 0
  %8 = load i32, ptr %7, align 4
  %9 = call noundef i32 @_ZN4llvm8Register13virtReg2IndexES0_(i32 %8)
  ret i32 %9
}

; Function Attrs: mustprogress nounwind uwtable
define linkonce_odr hidden noundef zeroext i1 @_ZN4llvm8Register17isVirtualRegisterEj(i32 noundef %0) #0 comdat align 2 {
  %2 = alloca i32, align 4
  store i32 %0, ptr %2, align 4
  %3 = load i32, ptr %2, align 4
  %4 = and i32 %3, -2147483648
  %5 = icmp ne i32 %4, 0
  ret i1 %5
}

; Function Attrs: mustprogress nounwind uwtable
define linkonce_odr hidden void @_ZN4llvm3LLTC2Ev(ptr noundef nonnull align 8 dereferenceable(8) %0) unnamed_addr #0 comdat align 2 {
  %2 = alloca ptr, align 8
  store ptr %0, ptr %2, align 8
  %3 = load ptr, ptr %2, align 8
  %4 = load i64, ptr %3, align 8
  %5 = and i64 %4, -2
  %6 = or i64 %5, 0
  store i64 %6, ptr %3, align 8
  %7 = load i64, ptr %3, align 8
  %8 = and i64 %7, -3
  %9 = or i64 %8, 0
  store i64 %9, ptr %3, align 8
  %10 = load i64, ptr %3, align 8
  %11 = and i64 %10, -5
  %12 = or i64 %11, 0
  store i64 %12, ptr %3, align 8
  %13 = load i64, ptr %3, align 8
  %14 = and i64 %13, 7
  %15 = or i64 %14, 0
  store i64 %15, ptr %3, align 8
  ret void
}

; Function Attrs: mustprogress nounwind uwtable
define linkonce_odr hidden noundef nonnull align 8 dereferenceable(8) ptr @_ZNK4llvm10IndexedMapINS_3LLTENS_20VirtReg2IndexFunctorEEixENS_8RegisterE(ptr noundef nonnull align 8 dereferenceable(25) %0, i32 %1) #0 comdat align 2 {
  %3 = alloca %"class.llvm::Register", align 4
  %4 = alloca ptr, align 8
  %5 = alloca %"class.llvm::Register", align 4
  %6 = getelementptr inbounds nuw %"class.llvm::Register", ptr %3, i32 0, i32 0
  store i32 %1, ptr %6, align 4
  store ptr %0, ptr %4, align 8
  %7 = load ptr, ptr %4, align 8
  %8 = getelementptr inbounds nuw %"class.llvm::IndexedMap.120", ptr %7, i32 0, i32 0
  %9 = getelementptr inbounds i8, ptr %7, i64 24
  call void @llvm.memcpy.p0.p0.i64(ptr align 4 %5, ptr align 4 %3, i64 4, i1 false)
  %10 = getelementptr inbounds nuw %"class.llvm::Register", ptr %5, i32 0, i32 0
  %11 = load i32, ptr %10, align 4
  %12 = call noundef i32 @_ZNK4llvm20VirtReg2IndexFunctorclENS_8RegisterE(ptr noundef nonnull align 1 dereferenceable(1) %9, i32 %11)
  %13 = zext i32 %12 to i64
  %14 = call noundef nonnull align 8 dereferenceable(8) ptr @_ZNK4llvm25SmallVectorTemplateCommonINS_3LLTEvEixEm(ptr noundef nonnull align 8 dereferenceable(16) %8, i64 noundef %13)
  ret ptr %14
}

; Function Attrs: mustprogress nounwind uwtable
define linkonce_odr hidden noundef zeroext i1 @_ZNK4llvm10IndexedMapINS_3LLTENS_20VirtReg2IndexFunctorEE8inBoundsENS_8RegisterE(ptr noundef nonnull align 8 dereferenceable(25) %0, i32 %1) #0 comdat align 2 {
  %3 = alloca %"class.llvm::Register", align 4
  %4 = alloca ptr, align 8
  %5 = alloca %"class.llvm::Register", align 4
  %6 = getelementptr inbounds nuw %"class.llvm::Register", ptr %3, i32 0, i32 0
  store i32 %1, ptr %6, align 4
  store ptr %0, ptr %4, align 8
  %7 = load ptr, ptr %4, align 8
  %8 = getelementptr inbounds i8, ptr %7, i64 24
  call void @llvm.memcpy.p0.p0.i64(ptr align 4 %5, ptr align 4 %3, i64 4, i1 false)
  %9 = getelementptr inbounds nuw %"class.llvm::Register", ptr %5, i32 0, i32 0
  %10 = load i32, ptr %9, align 4
  %11 = call noundef i32 @_ZNK4llvm20VirtReg2IndexFunctorclENS_8RegisterE(ptr noundef nonnull align 1 dereferenceable(1) %8, i32 %10)
  %12 = zext i32 %11 to i64
  %13 = getelementptr inbounds nuw %"class.llvm::IndexedMap.120", ptr %7, i32 0, i32 0
  %14 = call noundef i64 @_ZNK4llvm15SmallVectorBaseIjE4sizeEv(ptr noundef nonnull align 8 dereferenceable(16) %13)
  %15 = icmp ult i64 %12, %14
  ret i1 %15
}

; Function Attrs: mustprogress nounwind uwtable
define linkonce_odr hidden noundef zeroext i1 @_ZNK4llvm8Register9isVirtualEv(ptr noundef nonnull align 4 dereferenceable(4) %0) #0 comdat align 2 {
  %2 = alloca ptr, align 8
  store ptr %0, ptr %2, align 8
  %3 = load ptr, ptr %2, align 8
  %4 = getelementptr inbounds nuw %"class.llvm::Register", ptr %3, i32 0, i32 0
  %5 = load i32, ptr %4, align 4
  %6 = call noundef zeroext i1 @_ZN4llvm8Register17isVirtualRegisterEj(i32 noundef %5)
  ret i1 %6
}

; Function Attrs: mustprogress nounwind uwtable
define linkonce_odr hidden i64 @_ZNK4llvm19MachineRegisterInfo7getTypeENS_8RegisterE(ptr noundef nonnull align 8 dereferenceable(512) %0, i32 %1) #0 comdat align 2 {
  %3 = alloca %"class.llvm::LLT", align 8
  %4 = alloca %"class.llvm::Register", align 4
  %5 = alloca ptr, align 8
  %6 = alloca %"class.llvm::Register", align 4
  %7 = alloca %"class.llvm::Register", align 4
  %8 = getelementptr inbounds nuw %"class.llvm::Register", ptr %4, i32 0, i32 0
  store i32 %1, ptr %8, align 4
  store ptr %0, ptr %5, align 8
  %9 = load ptr, ptr %5, align 8
  %10 = call noundef zeroext i1 @_ZNK4llvm8Register9isVirtualEv(ptr noundef nonnull align 4 dereferenceable(4) %4)
  br i1 %10, label %11, label %21

11:                                               ; preds = %2
  %12 = getelementptr inbounds nuw %"class.llvm::MachineRegisterInfo", ptr %9, i32 0, i32 13
  call void @llvm.memcpy.p0.p0.i64(ptr align 4 %6, ptr align 4 %4, i64 4, i1 false)
  %13 = getelementptr inbounds nuw %"class.llvm::Register", ptr %6, i32 0, i32 0
  %14 = load i32, ptr %13, align 4
  %15 = call noundef zeroext i1 @_ZNK4llvm10IndexedMapINS_3LLTENS_20VirtReg2IndexFunctorEE8inBoundsENS_8RegisterE(ptr noundef nonnull align 8 dereferenceable(25) %12, i32 %14)
  br i1 %15, label %16, label %21

16:                                               ; preds = %11
  %17 = getelementptr inbounds nuw %"class.llvm::MachineRegisterInfo", ptr %9, i32 0, i32 13
  call void @llvm.memcpy.p0.p0.i64(ptr align 4 %7, ptr align 4 %4, i64 4, i1 false)
  %18 = getelementptr inbounds nuw %"class.llvm::Register", ptr %7, i32 0, i32 0
  %19 = load i32, ptr %18, align 4
  %20 = call noundef nonnull align 8 dereferenceable(8) ptr @_ZNK4llvm10IndexedMapINS_3LLTENS_20VirtReg2IndexFunctorEEixENS_8RegisterE(ptr noundef nonnull align 8 dereferenceable(25) %17, i32 %19)
  call void @llvm.memcpy.p0.p0.i64(ptr align 8 %3, ptr align 8 %20, i64 8, i1 false)
  br label %22

21:                                               ; preds = %11, %2
  call void @_ZN4llvm3LLTC2Ev(ptr noundef nonnull align 8 dereferenceable(8) %3)
  br label %22

22:                                               ; preds = %21, %16
  %23 = getelementptr inbounds nuw %"class.llvm::LLT", ptr %3, i32 0, i32 0
  %24 = load i64, ptr %23, align 8
  ret i64 %24
}

; Function Attrs: mustprogress nounwind uwtable
define dso_local i64 @_ZN4llvm15LegalizerHelper14extractGCDTypeERNS_15SmallVectorImplINS_8RegisterEEENS_3LLTES5_S2_(ptr noundef nonnull align 8 dereferenceable(48) %0, ptr noundef nonnull align 8 dereferenceable(16) %1, i64 %2, i64 %3, i32 %4) #0 align 2 {
  %6 = alloca %"class.llvm::LLT", align 8
  %7 = alloca %"class.llvm::LLT", align 8
  %8 = alloca %"class.llvm::LLT", align 8
  %9 = alloca %"class.llvm::Register", align 4
  %10 = alloca ptr, align 8
  %11 = alloca ptr, align 8
  %12 = alloca %"class.llvm::LLT", align 8
  %13 = alloca %"class.llvm::Register", align 4
  %14 = alloca %"class.llvm::LLT", align 8
  %15 = alloca %"class.llvm::LLT", align 8
  %16 = alloca %"class.llvm::LLT", align 8
  %17 = alloca %"class.llvm::LLT", align 8
  %18 = alloca %"class.llvm::LLT", align 8
  %19 = alloca %"class.llvm::Register", align 4
  %20 = getelementptr inbounds nuw %"class.llvm::LLT", ptr %7, i32 0, i32 0
  store i64 %2, ptr %20, align 8
  %21 = getelementptr inbounds nuw %"class.llvm::LLT", ptr %8, i32 0, i32 0
  store i64 %3, ptr %21, align 8
  %22 = getelementptr inbounds nuw %"class.llvm::Register", ptr %9, i32 0, i32 0
  store i32 %4, ptr %22, align 4
  store ptr %0, ptr %10, align 8
  store ptr %1, ptr %11, align 8
  %23 = load ptr, ptr %10, align 8
  %24 = getelementptr inbounds nuw %"class.llvm::LegalizerHelper", ptr %23, i32 0, i32 2
  %25 = load ptr, ptr %24, align 8
  call void @llvm.memcpy.p0.p0.i64(ptr align 4 %13, ptr align 4 %9, i64 4, i1 false)
  %26 = getelementptr inbounds nuw %"class.llvm::Register", ptr %13, i32 0, i32 0
  %27 = load i32, ptr %26, align 4
  %28 = call i64 @_ZNK4llvm19MachineRegisterInfo7getTypeENS_8RegisterE(ptr noundef nonnull align 8 dereferenceable(512) %25, i32 %27)
  %29 = getelementptr inbounds nuw %"class.llvm::LLT", ptr %12, i32 0, i32 0
  store i64 %28, ptr %29, align 8
  call void @llvm.memcpy.p0.p0.i64(ptr align 8 %15, ptr align 8 %12, i64 8, i1 false)
  call void @llvm.memcpy.p0.p0.i64(ptr align 8 %16, ptr align 8 %8, i64 8, i1 false)
  %30 = getelementptr inbounds nuw %"class.llvm::LLT", ptr %15, i32 0, i32 0
  %31 = load i64, ptr %30, align 8
  %32 = getelementptr inbounds nuw %"class.llvm::LLT", ptr %16, i32 0, i32 0
  %33 = load i64, ptr %32, align 8
  %34 = call i64 @_ZN4llvm10getGCDTypeENS_3LLTES0_(i64 %31, i64 %33) #16
  %35 = getelementptr inbounds nuw %"class.llvm::LLT", ptr %14, i32 0, i32 0
  store i64 %34, ptr %35, align 8
  call void @llvm.memcpy.p0.p0.i64(ptr align 8 %17, ptr align 8 %7, i64 8, i1 false)
  %36 = getelementptr inbounds nuw %"class.llvm::LLT", ptr %14, i32 0, i32 0
  %37 = load i64, ptr %36, align 8
  %38 = getelementptr inbounds nuw %"class.llvm::LLT", ptr %17, i32 0, i32 0
  %39 = load i64, ptr %38, align 8
  %40 = call i64 @_ZN4llvm10getGCDTypeENS_3LLTES0_(i64 %37, i64 %39) #16
  %41 = getelementptr inbounds nuw %"class.llvm::LLT", ptr %6, i32 0, i32 0
  store i64 %40, ptr %41, align 8
  %42 = load ptr, ptr %11, align 8
  call void @llvm.memcpy.p0.p0.i64(ptr align 8 %18, ptr align 8 %6, i64 8, i1 false)
  call void @llvm.memcpy.p0.p0.i64(ptr align 4 %19, ptr align 4 %9, i64 4, i1 false)
  %43 = getelementptr inbounds nuw %"class.llvm::LLT", ptr %18, i32 0, i32 0
  %44 = load i64, ptr %43, align 8
  %45 = getelementptr inbounds nuw %"class.llvm::Register", ptr %19, i32 0, i32 0
  %46 = load i32, ptr %45, align 4
  call void @_ZN4llvm15LegalizerHelper14extractGCDTypeERNS_15SmallVectorImplINS_8RegisterEEENS_3LLTES2_(ptr noundef nonnull align 8 dereferenceable(48) %23, ptr noundef nonnull align 8 dereferenceable(16) %42, i64 %44, i32 %46)
  %47 = getelementptr inbounds nuw %"class.llvm::LLT", ptr %6, i32 0, i32 0
  %48 = load i64, ptr %47, align 8
  ret i64 %48
}