; Function Attrs: mustprogress nounwind uwtable
define dso_local i64 @_ZN4llvm15LegalizerHelper14extractGCDTypeERNS_15SmallVectorImplINS_8RegisterEEENS_3LLTES5_S2_(ptr nocapture noundef nonnull readonly align 8 dereferenceable(48) %0, ptr noundef nonnull align 8 dereferenceable(16) %1, i64 %2, i64 %3, i32 %4) local_unnamed_addr #0 align 2 {
  %6 = icmp slt i32 %4, 0
  br i1 %6, label %7, label %_ZNK4llvm19MachineRegisterInfo7getTypeENS_8RegisterE.exit

7:                                                ; preds = %5
  %8 = getelementptr inbounds nuw i8, ptr %0, i64 16
  %9 = load ptr, ptr %8, align 8
  %10 = getelementptr inbounds nuw i8, ptr %9, i64 456
  %11 = and i32 %4, 2147483647
  %12 = zext nneg i32 %11 to i64
  %13 = tail call noundef i64 @_ZNK4llvm15SmallVectorBaseIjE4sizeEv(ptr noundef nonnull align 8 dereferenceable(16) %10) #18
  %14 = icmp ugt i64 %13, %12
  br i1 %14, label %15, label %_ZNK4llvm19MachineRegisterInfo7getTypeENS_8RegisterE.exit

15:                                               ; preds = %7
  %16 = load ptr, ptr %10, align 8
  %17 = getelementptr inbounds %"class.llvm::LLT", ptr %16, i64 %12
  %18 = load i64, ptr %17, align 8
  br label %_ZNK4llvm19MachineRegisterInfo7getTypeENS_8RegisterE.exit

_ZNK4llvm19MachineRegisterInfo7getTypeENS_8RegisterE.exit: ; preds = %5, %7, %15
  %.sroa.04.0.i = phi i64 [ %18, %15 ], [ 0, %7 ], [ 0, %5 ]
  %19 = tail call i64 @_ZN4llvm10getGCDTypeENS_3LLTES0_(i64 %.sroa.04.0.i, i64 %3) #20
  %20 = tail call i64 @_ZN4llvm10getGCDTypeENS_3LLTES0_(i64 %19, i64 %2) #20
  tail call void @_ZN4llvm15LegalizerHelper14extractGCDTypeERNS_15SmallVectorImplINS_8RegisterEEENS_3LLTES2_(ptr noundef nonnull align 8 dereferenceable(48) %0, ptr noundef nonnull align 8 dereferenceable(16) %1, i64 %20, i32 %4)
  ret i64 %20
}